target datalayout = "e-m:e-p270:32:32-p271:32:32-p272:64:64-i64:64-i128:128-f80:128-n8:16:32:64-S128"
target triple = "x86_64-pc-linux-gnu"

%"class.icu_77::UnifiedCache" = type { %"class.icu_77::UnifiedCacheBase", ptr, i32, i32, i32, i32, i32, i64, ptr }
%"class.icu_77::UnifiedCacheBase" = type { %"class.icu_77::UObject" }
%"class.icu_77::UObject" = type { ptr }

; Function Attrs: mustprogress uwtable
define noundef ptr @_ZNK6icu_7712UnifiedCache12_nextElementEv(ptr noundef nonnull align 8 dereferenceable(56) %0) #0 align 2 {
  %2 = alloca ptr, align 8
  %3 = alloca ptr, align 8
  %4 = alloca ptr, align 8
  %5 = alloca i32, align 4
  store ptr %0, ptr %3, align 8, !tbaa !14
  %6 = load ptr, ptr %3, align 8
  call void @llvm.lifetime.start.p0(i64 8, ptr %4) #12
  %7 = getelementptr inbounds nuw %"class.icu_77::UnifiedCache", ptr %6, i32 0, i32 1
  %8 = load ptr, ptr %7, align 8, !tbaa !27
  %9 = getelementptr inbounds nuw %"class.icu_77::UnifiedCache", ptr %6, i32 0, i32 2
  %10 = call ptr @uhash_nextElement_77(ptr noundef %8, ptr noundef %9)
  store ptr %10, ptr %4, align 8, !tbaa !56
  %11 = load ptr, ptr %4, align 8, !tbaa !56
  %12 = icmp eq ptr %11, null
  br i1 %12, label %13, label %19

13:                                               ; preds = %1
  %14 = getelementptr inbounds nuw %"class.icu_77::UnifiedCache", ptr %6, i32 0, i32 2
  store i32 -1, ptr %14, align 8, !tbaa !34
  %15 = getelementptr inbounds nuw %"class.icu_77::UnifiedCache", ptr %6, i32 0, i32 1
  %16 = load ptr, ptr %15, align 8, !tbaa !27
  %17 = getelementptr inbounds nuw %"class.icu_77::UnifiedCache", ptr %6, i32 0, i32 2
  %18 = call ptr @uhash_nextElement_77(ptr noundef %16, ptr noundef %17)
  store ptr %18, ptr %2, align 8
  store i32 1, ptr %5, align 4
  br label %21

19:                                               ; preds = %1
  %20 = load ptr, ptr %4, align 8, !tbaa !56
  store ptr %20, ptr %2, align 8
  store i32 1, ptr %5, align 4
  br label %21

21:                                               ; preds = %19, %13
  call void @llvm.lifetime.end.p0(i64 8, ptr %4) #12
  %22 = load ptr, ptr %2, align 8
  ret ptr %22
}