; Function Attrs: mustprogress uwtable
define noundef ptr @_ZNK6icu_7712UnifiedCache12_nextElementEv(ptr noundef nonnull align 8 dereferenceable(56) %0) local_unnamed_addr #0 align 2 {
  %2 = getelementptr inbounds nuw i8, ptr %0, i64 8
  %3 = load ptr, ptr %2, align 8, !tbaa !21
  %4 = getelementptr inbounds nuw i8, ptr %0, i64 16
  %5 = tail call ptr @uhash_nextElement_77(ptr noundef %3, ptr noundef nonnull %4)
  %6 = icmp eq ptr %5, null
  br i1 %6, label %7, label %10

7:                                                ; preds = %1
  store i32 -1, ptr %4, align 8, !tbaa !28
  %8 = load ptr, ptr %2, align 8, !tbaa !21
  %9 = tail call ptr @uhash_nextElement_77(ptr noundef %8, ptr noundef nonnull %4)
  br label %10

10:                                               ; preds = %1, %7
  %.0 = phi ptr [ %9, %7 ], [ %5, %1 ]
  ret ptr %.0
}